target datalayout = "e-m:e-p270:32:32-p271:32:32-p272:64:64-i64:64-i128:128-f80:128-n8:16:32:64-S128"
target triple = "x86_64-pc-linux-gnu"

%struct.strbuf = type { i64, i64, ptr }
%struct.cache_tree = type { i32, %struct.object_id, i32, i32, ptr }
%struct.object_id = type { [32 x i8], i32 }
%struct.cache_tree_sub = type { ptr, i32, i32, i32, [0 x i8] }
%struct.index_state = type { ptr, i32, i32, i32, i32, ptr, ptr, ptr, %struct.cache_time, i8, i32, %struct.hashmap, %struct.hashmap, %struct.object_id, ptr, ptr, ptr, ptr, ptr, ptr, ptr }
%struct.cache_time = type { i32, i32 }
%struct.hashmap = type { ptr, ptr, ptr, i32, i32, i32, i32, i8 }
%struct.repository = type { ptr, ptr, ptr, ptr, ptr, %struct.strmap, %struct.strmap, %struct.repo_path_cache, ptr, ptr, ptr, ptr, %struct.repo_settings, ptr, ptr, ptr, ptr, ptr, ptr, i32, i32, i32, ptr, ptr, i32, i32, i8 }
%struct.strmap = type { %struct.hashmap, ptr, i8 }
%struct.repo_path_cache = type { ptr, ptr, ptr, ptr, ptr, ptr, ptr }
%struct.repo_settings = type { i32, i32, i32, i32, i32, i32, i32, i32, i32, i32, i32, i32, ptr, i32, i32, i32, i32, i32, i32, i32, i64, i64, i64 }
%struct.tree_desc = type { ptr, ptr, %struct.name_entry, i32, i32 }
%struct.name_entry = type { %struct.object_id, ptr, i32, i32 }
%struct.tree = type { %struct.object, ptr, i64 }
%struct.object = type { i32, %struct.object_id }

@.str = private unnamed_addr constant [13 x i8] c"cache-tree.c\00", align 1
@strbuf_slopbuf = external global [0 x i8], align 1
@.str.31 = private unnamed_addr constant [11 x i8] c"./strbuf.h\00", align 1
@.str.32 = private unnamed_addr constant [30 x i8] c"strbuf_setlen() beyond buffer\00", align 1

; Function Attrs: inlinehint nounwind uwtable
define internal i64 @strbuf_avail(ptr noundef %0) #5 {
  %2 = alloca ptr, align 8
  store ptr %0, ptr %2, align 8, !tbaa !89
  %3 = load ptr, ptr %2, align 8, !tbaa !89
  %4 = getelementptr inbounds nuw %struct.strbuf, ptr %3, i32 0, i32 0
  %5 = load i64, ptr %4, align 8, !tbaa !127
  %6 = icmp ne i64 %5, 0
  br i1 %6, label %7, label %16

7:                                                ; preds = %1
  %8 = load ptr, ptr %2, align 8, !tbaa !89
  %9 = getelementptr inbounds nuw %struct.strbuf, ptr %8, i32 0, i32 0
  %10 = load i64, ptr %9, align 8, !tbaa !127
  %11 = load ptr, ptr %2, align 8, !tbaa !89
  %12 = getelementptr inbounds nuw %struct.strbuf, ptr %11, i32 0, i32 1
  %13 = load i64, ptr %12, align 8, !tbaa !84
  %14 = sub i64 %10, %13
  %15 = sub i64 %14, 1
  br label %17

16:                                               ; preds = %1
  br label %17

17:                                               ; preds = %16, %7
  %18 = phi i64 [ %15, %7 ], [ 0, %16 ]
  ret i64 %18
}

; Function Attrs: nounwind uwtable
define internal void @prime_cache_tree_sparse_dir(ptr noundef %0, ptr noundef %1) #0 {
  %3 = alloca ptr, align 8
  %4 = alloca ptr, align 8
  store ptr %0, ptr %3, align 8, !tbaa !4
  store ptr %1, ptr %4, align 8, !tbaa !103
  %5 = load ptr, ptr %3, align 8, !tbaa !4
  %6 = getelementptr inbounds nuw %struct.cache_tree, ptr %5, i32 0, i32 1
  %7 = load ptr, ptr %4, align 8, !tbaa !103
  %8 = getelementptr inbounds nuw %struct.tree, ptr %7, i32 0, i32 0
  %9 = getelementptr inbounds nuw %struct.object, ptr %8, i32 0, i32 1
  call void @oidcpy(ptr noundef %6, ptr noundef %9)
  %10 = load ptr, ptr %3, align 8, !tbaa !4
  %11 = getelementptr inbounds nuw %struct.cache_tree, ptr %10, i32 0, i32 0
  store i32 1, ptr %11, align 8, !tbaa !9
  ret void
}

; Function Attrs: inlinehint nounwind uwtable
define internal void @strbuf_addch(ptr noundef %0, i32 noundef %1) #5 {
  %3 = alloca ptr, align 8
  %4 = alloca i32, align 4
  store ptr %0, ptr %3, align 8, !tbaa !89
  store i32 %1, ptr %4, align 4, !tbaa !16
  %5 = load ptr, ptr %3, align 8, !tbaa !89
  %6 = call i64 @strbuf_avail(ptr noundef %5)
  %7 = icmp ne i64 %6, 0
  br i1 %7, label %10, label %8

8:                                                ; preds = %2
  %9 = load ptr, ptr %3, align 8, !tbaa !89
  call void @strbuf_grow(ptr noundef %9, i64 noundef 1)
  br label %10

10:                                               ; preds = %8, %2
  %11 = load i32, ptr %4, align 4, !tbaa !16
  %12 = trunc i32 %11 to i8
  %13 = load ptr, ptr %3, align 8, !tbaa !89
  %14 = getelementptr inbounds nuw %struct.strbuf, ptr %13, i32 0, i32 2
  %15 = load ptr, ptr %14, align 8, !tbaa !82
  %16 = load ptr, ptr %3, align 8, !tbaa !89
  %17 = getelementptr inbounds nuw %struct.strbuf, ptr %16, i32 0, i32 1
  %18 = load i64, ptr %17, align 8, !tbaa !84
  %19 = add i64 %18, 1
  store i64 %19, ptr %17, align 8, !tbaa !84
  %20 = getelementptr inbounds nuw i8, ptr %15, i64 %18
  store i8 %12, ptr %20, align 1, !tbaa !47
  %21 = load ptr, ptr %3, align 8, !tbaa !89
  %22 = getelementptr inbounds nuw %struct.strbuf, ptr %21, i32 0, i32 2
  %23 = load ptr, ptr %22, align 8, !tbaa !82
  %24 = load ptr, ptr %3, align 8, !tbaa !89
  %25 = getelementptr inbounds nuw %struct.strbuf, ptr %24, i32 0, i32 1
  %26 = load i64, ptr %25, align 8, !tbaa !84
  %27 = getelementptr inbounds nuw i8, ptr %23, i64 %26
  store i8 0, ptr %27, align 1, !tbaa !47
  ret void
}

; Function Attrs: inlinehint nounwind uwtable
define internal void @strbuf_setlen(ptr noundef %0, i64 noundef %1) #5 {
  %3 = alloca ptr, align 8
  %4 = alloca i64, align 8
  store ptr %0, ptr %3, align 8, !tbaa !89
  store i64 %1, ptr %4, align 8, !tbaa !28
  %5 = load i64, ptr %4, align 8, !tbaa !28
  %6 = load ptr, ptr %3, align 8, !tbaa !89
  %7 = getelementptr inbounds nuw %struct.strbuf, ptr %6, i32 0, i32 0
  %8 = load i64, ptr %7, align 8, !tbaa !127
  %9 = icmp ne i64 %8, 0
  br i1 %9, label %10, label %15

10:                                               ; preds = %2
  %11 = load ptr, ptr %3, align 8, !tbaa !89
  %12 = getelementptr inbounds nuw %struct.strbuf, ptr %11, i32 0, i32 0
  %13 = load i64, ptr %12, align 8, !tbaa !127
  %14 = sub i64 %13, 1
  br label %16

15:                                               ; preds = %2
  br label %16

16:                                               ; preds = %15, %10
  %17 = phi i64 [ %14, %10 ], [ 0, %15 ]
  %18 = icmp ugt i64 %5, %17
  br i1 %18, label %19, label %20

19:                                               ; preds = %16
  call void (ptr, i32, ptr, ...) @BUG_fl(ptr noundef @.str.31, i32 noundef 167, ptr noundef @.str.32) #12
  unreachable

20:                                               ; preds = %16
  %21 = load i64, ptr %4, align 8, !tbaa !28
  %22 = load ptr, ptr %3, align 8, !tbaa !89
  %23 = getelementptr inbounds nuw %struct.strbuf, ptr %22, i32 0, i32 1
  store i64 %21, ptr %23, align 8, !tbaa !84
  %24 = load ptr, ptr %3, align 8, !tbaa !89
  %25 = getelementptr inbounds nuw %struct.strbuf, ptr %24, i32 0, i32 2
  %26 = load ptr, ptr %25, align 8, !tbaa !82
  %27 = icmp ne ptr %26, @strbuf_slopbuf
  br i1 %27, label %28, label %34

28:                                               ; preds = %20
  %29 = load ptr, ptr %3, align 8, !tbaa !89
  %30 = getelementptr inbounds nuw %struct.strbuf, ptr %29, i32 0, i32 2
  %31 = load ptr, ptr %30, align 8, !tbaa !82
  %32 = load i64, ptr %4, align 8, !tbaa !28
  %33 = getelementptr inbounds nuw i8, ptr %31, i64 %32
  store i8 0, ptr %33, align 1, !tbaa !47
  br label %35

34:                                               ; preds = %20
  br label %35

35:                                               ; preds = %34, %28
  ret void
}

; Function Attrs: nounwind uwtable
define dso_local ptr @cache_tree() #0 {
  %1 = alloca ptr, align 8
  call void @llvm.lifetime.start.p0(i64 8, ptr %1) #10
  %2 = call ptr @xcalloc(i64 noundef 1, i64 noundef 56)
  store ptr %2, ptr %1, align 8, !tbaa !4
  %3 = load ptr, ptr %1, align 8, !tbaa !4
  %4 = getelementptr inbounds nuw %struct.cache_tree, ptr %3, i32 0, i32 0
  store i32 -1, ptr %4, align 8, !tbaa !9
  %5 = load ptr, ptr %1, align 8, !tbaa !4
  call void @llvm.lifetime.end.p0(i64 8, ptr %1) #10
  ret ptr %5
}

; Function Attrs: nounwind uwtable
define dso_local ptr @cache_tree_sub(ptr noundef %0, ptr noundef %1) #0 {
  %3 = alloca ptr, align 8
  %4 = alloca ptr, align 8
  %5 = alloca i32, align 4
  store ptr %0, ptr %3, align 8, !tbaa !4
  store ptr %1, ptr %4, align 8, !tbaa !23
  call void @llvm.lifetime.start.p0(i64 4, ptr %5) #10
  %6 = load ptr, ptr %4, align 8, !tbaa !23
  %7 = call i64 @strlen(ptr noundef %6) #11
  %8 = trunc i64 %7 to i32
  store i32 %8, ptr %5, align 4, !tbaa !16
  %9 = load ptr, ptr %3, align 8, !tbaa !4
  %10 = load ptr, ptr %4, align 8, !tbaa !23
  %11 = load i32, ptr %5, align 4, !tbaa !16
  %12 = call ptr @find_subtree(ptr noundef %9, ptr noundef %10, i32 noundef %11, i32 noundef 1)
  call void @llvm.lifetime.end.p0(i64 4, ptr %5) #10
  ret ptr %12
}

; Function Attrs: inlinehint nounwind uwtable
define internal i32 @parse_tree(ptr noundef %0) #5 {
  %2 = alloca ptr, align 8
  store ptr %0, ptr %2, align 8, !tbaa !103
  %3 = load ptr, ptr %2, align 8, !tbaa !103
  %4 = call i32 @parse_tree_gently(ptr noundef %3, i32 noundef 0)
  ret i32 %4
}

; Function Attrs: inlinehint nounwind uwtable
define internal void @oidcpy(ptr noundef %0, ptr noundef %1) #5 {
  %3 = alloca ptr, align 8
  %4 = alloca ptr, align 8
  store ptr %0, ptr %3, align 8, !tbaa !63
  store ptr %1, ptr %4, align 8, !tbaa !63
  %5 = load ptr, ptr %3, align 8, !tbaa !63
  %6 = getelementptr inbounds nuw %struct.object_id, ptr %5, i32 0, i32 0
  %7 = getelementptr inbounds [32 x i8], ptr %6, i64 0, i64 0
  %8 = load ptr, ptr %4, align 8, !tbaa !63
  %9 = getelementptr inbounds nuw %struct.object_id, ptr %8, i32 0, i32 0
  %10 = getelementptr inbounds [32 x i8], ptr %9, i64 0, i64 0
  call void @llvm.memcpy.p0.p0.i64(ptr align 4 %7, ptr align 4 %10, i64 32, i1 false)
  %11 = load ptr, ptr %4, align 8, !tbaa !63
  %12 = getelementptr inbounds nuw %struct.object_id, ptr %11, i32 0, i32 1
  %13 = load i32, ptr %12, align 4, !tbaa !129
  %14 = load ptr, ptr %3, align 8, !tbaa !63
  %15 = getelementptr inbounds nuw %struct.object_id, ptr %14, i32 0, i32 1
  store i32 %13, ptr %15, align 4, !tbaa !129
  ret void
}

; Function Attrs: nounwind uwtable
define internal void @prime_cache_tree_rec(ptr noundef %0, ptr noundef %1, ptr noundef %2, ptr noundef %3) #0 {
  %5 = alloca ptr, align 8
  %6 = alloca ptr, align 8
  %7 = alloca ptr, align 8
  %8 = alloca ptr, align 8
  %9 = alloca %struct.tree_desc, align 8
  %10 = alloca %struct.name_entry, align 8
  %11 = alloca i32, align 4
  %12 = alloca i64, align 8
  %13 = alloca ptr, align 8
  %14 = alloca ptr, align 8
  store ptr %0, ptr %5, align 8, !tbaa !48
  store ptr %1, ptr %6, align 8, !tbaa !4
  store ptr %2, ptr %7, align 8, !tbaa !103
  store ptr %3, ptr %8, align 8, !tbaa !89
  call void @llvm.lifetime.start.p0(i64 80, ptr %9) #10
  call void @llvm.lifetime.start.p0(i64 56, ptr %10) #10
  call void @llvm.lifetime.start.p0(i64 4, ptr %11) #10
  call void @llvm.lifetime.start.p0(i64 8, ptr %12) #10
  %15 = load ptr, ptr %8, align 8, !tbaa !89
  %16 = getelementptr inbounds nuw %struct.strbuf, ptr %15, i32 0, i32 1
  %17 = load i64, ptr %16, align 8, !tbaa !84
  store i64 %17, ptr %12, align 8, !tbaa !28
  %18 = load ptr, ptr %6, align 8, !tbaa !4
  %19 = getelementptr inbounds nuw %struct.cache_tree, ptr %18, i32 0, i32 1
  %20 = load ptr, ptr %7, align 8, !tbaa !103
  %21 = getelementptr inbounds nuw %struct.tree, ptr %20, i32 0, i32 0
  %22 = getelementptr inbounds nuw %struct.object, ptr %21, i32 0, i32 1
  call void @oidcpy(ptr noundef %19, ptr noundef %22)
  %23 = load ptr, ptr %7, align 8, !tbaa !103
  %24 = getelementptr inbounds nuw %struct.tree, ptr %23, i32 0, i32 0
  %25 = getelementptr inbounds nuw %struct.object, ptr %24, i32 0, i32 1
  %26 = load ptr, ptr %7, align 8, !tbaa !103
  %27 = getelementptr inbounds nuw %struct.tree, ptr %26, i32 0, i32 1
  %28 = load ptr, ptr %27, align 8, !tbaa !105
  %29 = load ptr, ptr %7, align 8, !tbaa !103
  %30 = getelementptr inbounds nuw %struct.tree, ptr %29, i32 0, i32 2
  %31 = load i64, ptr %30, align 8, !tbaa !108
  call void @init_tree_desc(ptr noundef %9, ptr noundef %25, ptr noundef %28, i64 noundef %31)
  store i32 0, ptr %11, align 4, !tbaa !16
  br label %32

32:                                               ; preds = %116, %4
  %33 = call i32 @tree_entry(ptr noundef %9, ptr noundef %10)
  %34 = icmp ne i32 %33, 0
  br i1 %34, label %35, label %117

35:                                               ; preds = %32
  %36 = getelementptr inbounds nuw %struct.name_entry, ptr %10, i32 0, i32 3
  %37 = load i32, ptr %36, align 4, !tbaa !109
  %38 = and i32 %37, 61440
  %39 = icmp eq i32 %38, 16384
  br i1 %39, label %43, label %40

40:                                               ; preds = %35
  %41 = load i32, ptr %11, align 4, !tbaa !16
  %42 = add nsw i32 %41, 1
  store i32 %42, ptr %11, align 4, !tbaa !16
  br label %116

43:                                               ; preds = %35
  call void @llvm.lifetime.start.p0(i64 8, ptr %13) #10
  call void @llvm.lifetime.start.p0(i64 8, ptr %14) #10
  %44 = load ptr, ptr %5, align 8, !tbaa !48
  %45 = getelementptr inbounds nuw %struct.name_entry, ptr %10, i32 0, i32 0
  %46 = call ptr @lookup_tree(ptr noundef %44, ptr noundef %45)
  store ptr %46, ptr %14, align 8, !tbaa !103
  %47 = load ptr, ptr %14, align 8, !tbaa !103
  %48 = call i32 @parse_tree(ptr noundef %47)
  %49 = icmp slt i32 %48, 0
  br i1 %49, label %50, label %52

50:                                               ; preds = %43
  %51 = call i32 @common_exit(ptr noundef @.str, i32 noundef 788, i32 noundef 128)
  call void @exit(i32 noundef %51) #13
  unreachable

52:                                               ; preds = %43
  %53 = load ptr, ptr %6, align 8, !tbaa !4
  %54 = getelementptr inbounds nuw %struct.name_entry, ptr %10, i32 0, i32 1
  %55 = load ptr, ptr %54, align 8, !tbaa !111
  %56 = call ptr @cache_tree_sub(ptr noundef %53, ptr noundef %55)
  store ptr %56, ptr %13, align 8, !tbaa !19
  %57 = call ptr @cache_tree()
  %58 = load ptr, ptr %13, align 8, !tbaa !19
  %59 = getelementptr inbounds nuw %struct.cache_tree_sub, ptr %58, i32 0, i32 0
  store ptr %57, ptr %59, align 8, !tbaa !4
  %60 = load ptr, ptr %5, align 8, !tbaa !48
  %61 = getelementptr inbounds nuw %struct.repository, ptr %60, i32 0, i32 15
  %62 = load ptr, ptr %61, align 8, !tbaa !99
  %63 = getelementptr inbounds nuw %struct.index_state, ptr %62, i32 0, i32 10
  %64 = load i32, ptr %63, align 4, !tbaa !112
  %65 = icmp ne i32 %64, 0
  br i1 %65, label %66, label %76

66:                                               ; preds = %52
  %67 = load ptr, ptr %8, align 8, !tbaa !89
  %68 = load i64, ptr %12, align 8, !tbaa !28
  call void @strbuf_setlen(ptr noundef %67, i64 noundef %68)
  %69 = load ptr, ptr %8, align 8, !tbaa !89
  %70 = getelementptr inbounds nuw %struct.name_entry, ptr %10, i32 0, i32 1
  %71 = load ptr, ptr %70, align 8, !tbaa !111
  %72 = getelementptr inbounds nuw %struct.name_entry, ptr %10, i32 0, i32 2
  %73 = load i32, ptr %72, align 8, !tbaa !113
  %74 = sext i32 %73 to i64
  call void @strbuf_add(ptr noundef %69, ptr noundef %71, i64 noundef %74)
  %75 = load ptr, ptr %8, align 8, !tbaa !89
  call void @strbuf_addch(ptr noundef %75, i32 noundef 47)
  br label %76

76:                                               ; preds = %66, %52
  %77 = load ptr, ptr %5, align 8, !tbaa !48
  %78 = getelementptr inbounds nuw %struct.repository, ptr %77, i32 0, i32 15
  %79 = load ptr, ptr %78, align 8, !tbaa !99
  %80 = getelementptr inbounds nuw %struct.index_state, ptr %79, i32 0, i32 10
  %81 = load i32, ptr %80, align 4, !tbaa !112
  %82 = icmp ne i32 %81, 0
  br i1 %82, label %83, label %101

83:                                               ; preds = %76
  %84 = load ptr, ptr %5, align 8, !tbaa !48
  %85 = getelementptr inbounds nuw %struct.repository, ptr %84, i32 0, i32 15
  %86 = load ptr, ptr %85, align 8, !tbaa !99
  %87 = load ptr, ptr %8, align 8, !tbaa !89
  %88 = getelementptr inbounds nuw %struct.strbuf, ptr %87, i32 0, i32 2
  %89 = load ptr, ptr %88, align 8, !tbaa !82
  %90 = load ptr, ptr %8, align 8, !tbaa !89
  %91 = getelementptr inbounds nuw %struct.strbuf, ptr %90, i32 0, i32 1
  %92 = load i64, ptr %91, align 8, !tbaa !84
  %93 = trunc i64 %92 to i32
  %94 = call i32 @index_entry_exists(ptr noundef %86, ptr noundef %89, i32 noundef %93)
  %95 = icmp ne i32 %94, 0
  br i1 %95, label %96, label %101

96:                                               ; preds = %83
  %97 = load ptr, ptr %13, align 8, !tbaa !19
  %98 = getelementptr inbounds nuw %struct.cache_tree_sub, ptr %97, i32 0, i32 0
  %99 = load ptr, ptr %98, align 8, !tbaa !4
  %100 = load ptr, ptr %14, align 8, !tbaa !103
  call void @prime_cache_tree_sparse_dir(ptr noundef %99, ptr noundef %100)
  br label %108

101:                                              ; preds = %83, %76
  %102 = load ptr, ptr %5, align 8, !tbaa !48
  %103 = load ptr, ptr %13, align 8, !tbaa !19
  %104 = getelementptr inbounds nuw %struct.cache_tree_sub, ptr %103, i32 0, i32 0
  %105 = load ptr, ptr %104, align 8, !tbaa !4
  %106 = load ptr, ptr %14, align 8, !tbaa !103
  %107 = load ptr, ptr %8, align 8, !tbaa !89
  call void @prime_cache_tree_rec(ptr noundef %102, ptr noundef %105, ptr noundef %106, ptr noundef %107)
  br label %108

108:                                              ; preds = %101, %96
  %109 = load ptr, ptr %13, align 8, !tbaa !19
  %110 = getelementptr inbounds nuw %struct.cache_tree_sub, ptr %109, i32 0, i32 0
  %111 = load ptr, ptr %110, align 8, !tbaa !4
  %112 = getelementptr inbounds nuw %struct.cache_tree, ptr %111, i32 0, i32 0
  %113 = load i32, ptr %112, align 8, !tbaa !9
  %114 = load i32, ptr %11, align 4, !tbaa !16
  %115 = add nsw i32 %114, %113
  store i32 %115, ptr %11, align 4, !tbaa !16
  call void @llvm.lifetime.end.p0(i64 8, ptr %14) #10
  call void @llvm.lifetime.end.p0(i64 8, ptr %13) #10
  br label %116

116:                                              ; preds = %108, %40
  br label %32, !llvm.loop !114

117:                                              ; preds = %32
  %118 = load i32, ptr %11, align 4, !tbaa !16
  %119 = load ptr, ptr %6, align 8, !tbaa !4
  %120 = getelementptr inbounds nuw %struct.cache_tree, ptr %119, i32 0, i32 0
  store i32 %118, ptr %120, align 8, !tbaa !9
  call void @llvm.lifetime.end.p0(i64 8, ptr %12) #10
  call void @llvm.lifetime.end.p0(i64 4, ptr %11) #10
  call void @llvm.lifetime.end.p0(i64 56, ptr %10) #10
  call void @llvm.lifetime.end.p0(i64 80, ptr %9) #10
  ret void
}