; Function Attrs: nounwind uwtable
define internal fastcc void @prime_cache_tree_rec(ptr noundef %0, ptr noundef captures(none) initializes((4, 40)) %1, ptr noundef %2, ptr noundef nonnull %3) unnamed_addr #0 {
  %5 = alloca %struct.tree_desc, align 8
  %6 = alloca %struct.name_entry, align 8
  call void @llvm.lifetime.start.p0(i64 80, ptr nonnull %5) #18
  call void @llvm.lifetime.start.p0(i64 56, ptr nonnull %6) #18
  %7 = getelementptr inbounds nuw i8, ptr %3, i64 8
  %8 = load i64, ptr %7, align 8, !tbaa !79
  %9 = getelementptr inbounds nuw i8, ptr %1, i64 4
  %10 = getelementptr inbounds nuw i8, ptr %2, i64 4
  tail call void @llvm.memcpy.p0.p0.i64(ptr noundef nonnull align 4 dereferenceable(32) %9, ptr noundef nonnull readonly align 4 dereferenceable(32) %10, i64 32, i1 false)
  %11 = getelementptr inbounds nuw i8, ptr %2, i64 36
  %12 = load i32, ptr %11, align 4, !tbaa !52
  %13 = getelementptr inbounds nuw i8, ptr %1, i64 36
  store i32 %12, ptr %13, align 4, !tbaa !52
  %14 = getelementptr inbounds nuw i8, ptr %2, i64 40
  %15 = load ptr, ptr %14, align 8, !tbaa !89
  %16 = getelementptr inbounds nuw i8, ptr %2, i64 48
  %17 = load i64, ptr %16, align 8, !tbaa !92
  call void @init_tree_desc(ptr noundef nonnull %5, ptr noundef nonnull %10, ptr noundef %15, i64 noundef %17) #18
  %18 = call i32 @tree_entry(ptr noundef nonnull %5, ptr noundef nonnull %6) #18
  %.not34 = icmp eq i32 %18, 0
  br i1 %.not34, label %._crit_edge, label %.lr.ph

.lr.ph:                                           ; preds = %4
  %19 = getelementptr inbounds nuw i8, ptr %6, i64 52
  %20 = getelementptr inbounds nuw i8, ptr %6, i64 40
  %21 = getelementptr inbounds nuw i8, ptr %0, i64 384
  %22 = getelementptr inbounds nuw i8, ptr %3, i64 16
  %23 = getelementptr inbounds nuw i8, ptr %6, i64 48
  br label %24

24:                                               ; preds = %.lr.ph, %80
  %.035 = phi i32 [ 0, %.lr.ph ], [ %.1, %80 ]
  %25 = load i32, ptr %19, align 4, !tbaa !93
  %26 = and i32 %25, 61440
  %27 = icmp eq i32 %26, 16384
  br i1 %27, label %28, label %80

28:                                               ; preds = %24
  %29 = call ptr @lookup_tree(ptr noundef %0, ptr noundef nonnull %6) #18
  %30 = call i32 @parse_tree_gently(ptr noundef %29, i32 noundef 0) #18
  %31 = icmp slt i32 %30, 0
  br i1 %31, label %32, label %34

32:                                               ; preds = %28
  %33 = call i32 @common_exit(ptr noundef nonnull @.str, i32 noundef 788, i32 noundef 128) #18
  call void @exit(i32 noundef %33) #20
  unreachable

34:                                               ; preds = %28
  %35 = load ptr, ptr %20, align 8, !tbaa !95
  %36 = call i64 @strlen(ptr noundef nonnull readonly dereferenceable(1) %35) #19
  %37 = trunc i64 %36 to i32
  %38 = call fastcc ptr @find_subtree(ptr noundef %1, ptr noundef nonnull readonly %35, i32 noundef %37, i32 noundef 1)
  %39 = call noundef ptr @xcalloc(i64 noundef 1, i64 noundef 56) #18
  store i32 -1, ptr %39, align 8, !tbaa !4
  store ptr %39, ptr %38, align 8, !tbaa !12
  %40 = load ptr, ptr %21, align 8, !tbaa !87
  %41 = getelementptr inbounds nuw i8, ptr %40, i64 60
  %42 = load i32, ptr %41, align 4, !tbaa !96
  %.not29 = icmp eq i32 %42, 0
  br i1 %.not29, label %._crit_edge37, label %43

43:                                               ; preds = %34
  %44 = load i64, ptr %3, align 8, !tbaa !97
  %spec.select.i = call i64 @llvm.usub.sat.i64(i64 %44, i64 1)
  %45 = icmp ugt i64 %8, %spec.select.i
  br i1 %45, label %46, label %47

46:                                               ; preds = %43
  call void (ptr, i32, ptr, ...) @BUG_fl(ptr noundef nonnull @.str.31, i32 noundef 167, ptr noundef nonnull @.str.32) #20
  unreachable

47:                                               ; preds = %43
  store i64 %8, ptr %7, align 8, !tbaa !79
  %48 = load ptr, ptr %22, align 8, !tbaa !77
  %.not9.i = icmp eq ptr %48, @strbuf_slopbuf
  br i1 %.not9.i, label %strbuf_setlen.exit, label %49

49:                                               ; preds = %47
  %50 = getelementptr inbounds nuw i8, ptr %48, i64 %8
  store i8 0, ptr %50, align 1, !tbaa !38
  br label %strbuf_setlen.exit

strbuf_setlen.exit:                               ; preds = %47, %49
  %51 = load ptr, ptr %20, align 8, !tbaa !95
  %52 = load i32, ptr %23, align 8, !tbaa !98
  %53 = sext i32 %52 to i64
  call void @strbuf_add(ptr noundef nonnull %3, ptr noundef %51, i64 noundef %53) #18
  %54 = load i64, ptr %3, align 8, !tbaa !97
  %.not.i.i = icmp eq i64 %54, 0
  br i1 %.not.i.i, label %strbuf_avail.exit.thread.i, label %strbuf_avail.exit.i

strbuf_avail.exit.i:                              ; preds = %strbuf_setlen.exit
  %55 = load i64, ptr %7, align 8, !tbaa !79
  %.neg.i = add i64 %55, 1
  %.not.i = icmp eq i64 %54, %.neg.i
  br i1 %.not.i, label %strbuf_avail.exit.thread.i, label %56

strbuf_avail.exit.thread.i:                       ; preds = %strbuf_avail.exit.i, %strbuf_setlen.exit
  call void @strbuf_grow(ptr noundef nonnull %3, i64 noundef 1) #18
  %.pre.i = load i64, ptr %7, align 8, !tbaa !79
  %.pre7.i = add i64 %.pre.i, 1
  br label %56

56:                                               ; preds = %strbuf_avail.exit.thread.i, %strbuf_avail.exit.i
  %.pre-phi.i = phi i64 [ %.pre7.i, %strbuf_avail.exit.thread.i ], [ %.neg.i, %strbuf_avail.exit.i ]
  %57 = phi i64 [ %.pre.i, %strbuf_avail.exit.thread.i ], [ %55, %strbuf_avail.exit.i ]
  %58 = load ptr, ptr %22, align 8, !tbaa !77
  store i64 %.pre-phi.i, ptr %7, align 8, !tbaa !79
  %59 = getelementptr inbounds nuw i8, ptr %58, i64 %57
  store i8 47, ptr %59, align 1, !tbaa !38
  %60 = load ptr, ptr %22, align 8, !tbaa !77
  %61 = load i64, ptr %7, align 8, !tbaa !79
  %62 = getelementptr inbounds nuw i8, ptr %60, i64 %61
  store i8 0, ptr %62, align 1, !tbaa !38
  %.pre = load ptr, ptr %21, align 8, !tbaa !87
  %.phi.trans.insert = getelementptr inbounds nuw i8, ptr %.pre, i64 60
  %.pre36 = load i32, ptr %.phi.trans.insert, align 4, !tbaa !96
  %63 = icmp eq i32 %.pre36, 0
  br i1 %63, label %._crit_edge37, label %64

._crit_edge37:                                    ; preds = %34, %56
  %.pre38 = load ptr, ptr %38, align 8, !tbaa !12
  br label %75

64:                                               ; preds = %56
  %65 = load ptr, ptr %22, align 8, !tbaa !77
  %66 = load i64, ptr %7, align 8, !tbaa !79
  %67 = trunc i64 %66 to i32
  %68 = call i32 @index_entry_exists(ptr noundef nonnull %.pre, ptr noundef %65, i32 noundef %67) #18
  %.not31 = icmp eq i32 %68, 0
  %.pre39 = load ptr, ptr %38, align 8, !tbaa !12
  br i1 %.not31, label %75, label %69

69:                                               ; preds = %64
  %70 = getelementptr inbounds nuw i8, ptr %.pre39, i64 4
  %71 = getelementptr inbounds nuw i8, ptr %29, i64 4
  call void @llvm.memcpy.p0.p0.i64(ptr noundef nonnull align 4 dereferenceable(32) %70, ptr noundef nonnull readonly align 4 dereferenceable(32) %71, i64 32, i1 false)
  %72 = getelementptr inbounds nuw i8, ptr %29, i64 36
  %73 = load i32, ptr %72, align 4, !tbaa !52
  %74 = getelementptr inbounds nuw i8, ptr %.pre39, i64 36
  store i32 %73, ptr %74, align 4, !tbaa !52
  store i32 1, ptr %.pre39, align 8, !tbaa !4
  br label %77

75:                                               ; preds = %._crit_edge37, %64
  %76 = phi ptr [ %.pre38, %._crit_edge37 ], [ %.pre39, %64 ]
  call fastcc void @prime_cache_tree_rec(ptr noundef nonnull %0, ptr noundef %76, ptr noundef %29, ptr noundef %3)
  br label %77

77:                                               ; preds = %75, %69
  %78 = load ptr, ptr %38, align 8, !tbaa !12
  %79 = load i32, ptr %78, align 8, !tbaa !4
  br label %80

80:                                               ; preds = %24, %77
  %.pn = phi i32 [ %79, %77 ], [ 1, %24 ]
  %.1 = add nsw i32 %.pn, %.035
  %81 = call i32 @tree_entry(ptr noundef nonnull %5, ptr noundef nonnull %6) #18
  %.not = icmp eq i32 %81, 0
  br i1 %.not, label %._crit_edge, label %24, !llvm.loop !99

._crit_edge:                                      ; preds = %80, %4
  %.0.lcssa = phi i32 [ 0, %4 ], [ %.1, %80 ]
  store i32 %.0.lcssa, ptr %1, align 8, !tbaa !4
  call void @llvm.lifetime.end.p0(i64 56, ptr nonnull %6) #18
  call void @llvm.lifetime.end.p0(i64 80, ptr nonnull %5) #18
  ret void
}